target datalayout = "e-m:e-p270:32:32-p271:32:32-p272:64:64-i64:64-i128:128-f80:128-n8:16:32:64-S128"
target triple = "x86_64-pc-linux-gnu"

%struct.dh_st = type { i32, i32, %struct.ffc_params_st, i32, ptr, ptr, i32, ptr, %struct.CRYPTO_REF_COUNT, %struct.crypto_ex_data_st, ptr, ptr, ptr, ptr, i64 }
%struct.ffc_params_st = type { ptr, ptr, ptr, ptr, ptr, i64, i32, i32, i32, i32, i32, ptr, ptr, i32 }
%struct.CRYPTO_REF_COUNT = type { i32 }
%struct.crypto_ex_data_st = type { ptr, ptr }
%struct.evp_pkey_st = type { i32, i32, ptr, ptr, ptr, %union.legacy_pkey_st, %union.legacy_pkey_st, %struct.CRYPTO_REF_COUNT, ptr, ptr, i32, i8, %struct.crypto_ex_data_st, ptr, ptr, i64, ptr, i64, %struct.anon }
%union.legacy_pkey_st = type { ptr }
%struct.anon = type { i32, i32, i32 }

; Function Attrs: nounwind uwtable
define internal i32 @int_dh_param_copy(ptr noundef %0, ptr noundef %1, i32 noundef %2) #0 {
  %4 = alloca i32, align 4
  %5 = alloca ptr, align 8
  %6 = alloca ptr, align 8
  %7 = alloca i32, align 4
  store ptr %0, ptr %5, align 8, !tbaa !3
  store ptr %1, ptr %6, align 8, !tbaa !3
  store i32 %2, ptr %7, align 4, !tbaa !8
  %8 = load i32, ptr %7, align 4, !tbaa !8
  %9 = icmp eq i32 %8, -1
  br i1 %9, label %10, label %17

10:                                               ; preds = %3
  %11 = load ptr, ptr %6, align 8, !tbaa !3
  %12 = getelementptr inbounds nuw %struct.dh_st, ptr %11, i32 0, i32 2
  %13 = getelementptr inbounds nuw %struct.ffc_params_st, ptr %12, i32 0, i32 1
  %14 = load ptr, ptr %13, align 8, !tbaa !10
  %15 = icmp ne ptr %14, null
  %16 = zext i1 %15 to i32
  store i32 %16, ptr %7, align 4, !tbaa !8
  br label %17

17:                                               ; preds = %10, %3
  %18 = load ptr, ptr %5, align 8, !tbaa !3
  %19 = getelementptr inbounds nuw %struct.dh_st, ptr %18, i32 0, i32 2
  %20 = load ptr, ptr %6, align 8, !tbaa !3
  %21 = getelementptr inbounds nuw %struct.dh_st, ptr %20, i32 0, i32 2
  %22 = call i32 @ossl_ffc_params_copy(ptr noundef %19, ptr noundef %21)
  %23 = icmp ne i32 %22, 0
  br i1 %23, label %25, label %24

24:                                               ; preds = %17
  store i32 0, ptr %4, align 4
  br label %39

25:                                               ; preds = %17
  %26 = load i32, ptr %7, align 4, !tbaa !8
  %27 = icmp ne i32 %26, 0
  br i1 %27, label %34, label %28

28:                                               ; preds = %25
  %29 = load ptr, ptr %6, align 8, !tbaa !3
  %30 = getelementptr inbounds nuw %struct.dh_st, ptr %29, i32 0, i32 3
  %31 = load i32, ptr %30, align 8, !tbaa !23
  %32 = load ptr, ptr %5, align 8, !tbaa !3
  %33 = getelementptr inbounds nuw %struct.dh_st, ptr %32, i32 0, i32 3
  store i32 %31, ptr %33, align 8, !tbaa !23
  br label %34

34:                                               ; preds = %28, %25
  %35 = load ptr, ptr %5, align 8, !tbaa !3
  %36 = getelementptr inbounds nuw %struct.dh_st, ptr %35, i32 0, i32 14
  %37 = load i64, ptr %36, align 8, !tbaa !24
  %38 = add i64 %37, 1
  store i64 %38, ptr %36, align 8, !tbaa !24
  store i32 1, ptr %4, align 4
  br label %39

39:                                               ; preds = %34, %24
  %40 = load i32, ptr %4, align 4
  ret i32 %40
}

; Function Attrs: nounwind uwtable
define internal i32 @dh_copy_parameters(ptr noundef %0, ptr noundef %1) #0 {
  %3 = alloca i32, align 4
  %4 = alloca ptr, align 8
  %5 = alloca ptr, align 8
  store ptr %0, ptr %4, align 8, !tbaa !32
  store ptr %1, ptr %5, align 8, !tbaa !32
  %6 = load ptr, ptr %4, align 8, !tbaa !32
  %7 = getelementptr inbounds nuw %struct.evp_pkey_st, ptr %6, i32 0, i32 5
  %8 = load ptr, ptr %7, align 8, !tbaa !53
  %9 = icmp eq ptr %8, null
  br i1 %9, label %10, label %20

10:                                               ; preds = %2
  %11 = call ptr @DH_new()
  %12 = load ptr, ptr %4, align 8, !tbaa !32
  %13 = getelementptr inbounds nuw %struct.evp_pkey_st, ptr %12, i32 0, i32 5
  store ptr %11, ptr %13, align 8, !tbaa !53
  %14 = load ptr, ptr %4, align 8, !tbaa !32
  %15 = getelementptr inbounds nuw %struct.evp_pkey_st, ptr %14, i32 0, i32 5
  %16 = load ptr, ptr %15, align 8, !tbaa !53
  %17 = icmp eq ptr %16, null
  br i1 %17, label %18, label %19

18:                                               ; preds = %10
  store i32 0, ptr %3, align 4
  br label %33

19:                                               ; preds = %10
  br label %20

20:                                               ; preds = %19, %2
  %21 = load ptr, ptr %4, align 8, !tbaa !32
  %22 = getelementptr inbounds nuw %struct.evp_pkey_st, ptr %21, i32 0, i32 5
  %23 = load ptr, ptr %22, align 8, !tbaa !53
  %24 = load ptr, ptr %5, align 8, !tbaa !32
  %25 = getelementptr inbounds nuw %struct.evp_pkey_st, ptr %24, i32 0, i32 5
  %26 = load ptr, ptr %25, align 8, !tbaa !53
  %27 = load ptr, ptr %5, align 8, !tbaa !32
  %28 = getelementptr inbounds nuw %struct.evp_pkey_st, ptr %27, i32 0, i32 2
  %29 = load ptr, ptr %28, align 8, !tbaa !44
  %30 = icmp eq ptr %29, @ossl_dhx_asn1_meth
  %31 = zext i1 %30 to i32
  %32 = call i32 @int_dh_param_copy(ptr noundef %23, ptr noundef %26, i32 noundef %31)
  store i32 %32, ptr %3, align 4
  br label %33

33:                                               ; preds = %20, %18
  %34 = load i32, ptr %3, align 4
  ret i32 %34
}