; Function Attrs: nounwind uwtable
define internal range(i32 0, 2) i32 @dh_copy_parameters(ptr noundef captures(none) %0, ptr noundef readonly captures(none) %1) #0 {
  %3 = getelementptr inbounds nuw i8, ptr %0, i64 32
  %4 = load ptr, ptr %3, align 8, !tbaa !42
  %5 = icmp eq ptr %4, null
  br i1 %5, label %6, label %9

6:                                                ; preds = %2
  %7 = tail call ptr @DH_new() #5
  store ptr %7, ptr %3, align 8, !tbaa !42
  %8 = icmp eq ptr %7, null
  br i1 %8, label %int_dh_param_copy.exit, label %9

9:                                                ; preds = %6, %2
  %10 = phi ptr [ %7, %6 ], [ %4, %2 ]
  %11 = getelementptr inbounds nuw i8, ptr %1, i64 32
  %12 = load ptr, ptr %11, align 8, !tbaa !42
  %13 = getelementptr inbounds nuw i8, ptr %1, i64 8
  %14 = load ptr, ptr %13, align 8, !tbaa !33
  %15 = getelementptr inbounds nuw i8, ptr %10, i64 8
  %16 = getelementptr inbounds nuw i8, ptr %12, i64 8
  %17 = tail call i32 @ossl_ffc_params_copy(ptr noundef nonnull %15, ptr noundef nonnull %16) #5
  %.not.i = icmp eq i32 %17, 0
  br i1 %.not.i, label %int_dh_param_copy.exit, label %18

18:                                               ; preds = %9
  %.not = icmp eq ptr %14, @ossl_dhx_asn1_meth
  br i1 %.not, label %23, label %19

19:                                               ; preds = %18
  %20 = getelementptr inbounds nuw i8, ptr %12, i64 104
  %21 = load i32, ptr %20, align 8, !tbaa !20
  %22 = getelementptr inbounds nuw i8, ptr %10, i64 104
  store i32 %21, ptr %22, align 8, !tbaa !20
  br label %23

23:                                               ; preds = %19, %18
  %24 = getelementptr inbounds nuw i8, ptr %10, i64 200
  %25 = load i64, ptr %24, align 8, !tbaa !21
  %26 = add i64 %25, 1
  store i64 %26, ptr %24, align 8, !tbaa !21
  br label %int_dh_param_copy.exit

int_dh_param_copy.exit:                           ; preds = %23, %9, %6
  %.0 = phi i32 [ 0, %6 ], [ 1, %23 ], [ 0, %9 ]
  ret i32 %.0
}